; Function Attrs: mustprogress uwtable
define hidden void @_ZN4cvc58internal9TrustNode16debugCheckClosedERKNS0_7OptionsEPKcS6_b(ptr noundef nonnull readonly align 8 captures(none) dereferenceable(24) %0, ptr noundef nonnull align 8 dereferenceable(408) %1, ptr noundef %2, ptr noundef %3, i1 noundef zeroext %4) local_unnamed_addr #4 align 2 personality ptr @__gxx_personality_v0 {
  %6 = alloca %"class.cvc5::internal::NodeTemplate", align 8
  %7 = getelementptr inbounds nuw i8, ptr %0, i64 8
  %8 = load ptr, ptr %7, align 8, !tbaa !3
  store ptr %8, ptr %6, align 8, !tbaa !3
  %9 = load i64, ptr %8, align 8
  %10 = lshr i64 %9, 40
  %11 = trunc nuw nsw i64 %10 to i32
  %12 = and i32 %11, 1048575
  %13 = icmp samesign ult i32 %12, 1048574
  br i1 %13, label %14, label %19, !prof !9

14:                                               ; preds = %5
  %15 = add i64 %9, 1099511627776
  %16 = and i64 %15, 1152920405095219200
  %17 = and i64 %9, -1152920405095219201
  %18 = or disjoint i64 %16, %17
  store i64 %18, ptr %8, align 8
  br label %_ZN4cvc58internal12NodeTemplateILb1EEC2ERKS2_.exit

19:                                               ; preds = %5
  %20 = icmp eq i32 %12, 1048574
  br i1 %20, label %21, label %_ZN4cvc58internal12NodeTemplateILb1EEC2ERKS2_.exit, !prof !10

21:                                               ; preds = %19
  %22 = or i64 %9, 1152920405095219200
  store i64 %22, ptr %8, align 8
  tail call void @_ZN4cvc58internal4expr9NodeValue20markRefCountMaxedOutEv(ptr noundef nonnull align 8 dereferenceable(24) %8)
  br label %_ZN4cvc58internal12NodeTemplateILb1EEC2ERKS2_.exit

_ZN4cvc58internal12NodeTemplateILb1EEC2ERKS2_.exit: ; preds = %14, %19, %21
  %23 = getelementptr inbounds nuw i8, ptr %0, i64 16
  %24 = load ptr, ptr %23, align 8, !tbaa !30
  invoke void @_ZN4cvc58internal15pfgEnsureClosedERKNS0_7OptionsENS0_12NodeTemplateILb1EEEPNS0_14ProofGeneratorEPKcS9_b(ptr noundef nonnull align 8 dereferenceable(408) %1, ptr noundef nonnull %6, ptr noundef %24, ptr noundef %2, ptr noundef %3, i1 noundef zeroext %4)
          to label %25 unwind label %39

25:                                               ; preds = %_ZN4cvc58internal12NodeTemplateILb1EEC2ERKS2_.exit
  %26 = load ptr, ptr %6, align 8, !tbaa !3
  %27 = load i64, ptr %26, align 8
  %28 = and i64 %27, 1152920405095219200
  %.not.i.i = icmp eq i64 %28, 1152920405095219200
  br i1 %.not.i.i, label %_ZN4cvc58internal12NodeTemplateILb1EED2Ev.exit, label %29, !prof !10

29:                                               ; preds = %25
  %30 = add i64 %27, 1152920405095219200
  %31 = and i64 %30, 1152920405095219200
  %32 = and i64 %27, -1152920405095219201
  %33 = or disjoint i64 %31, %32
  store i64 %33, ptr %26, align 8
  %34 = icmp eq i64 %31, 0
  br i1 %34, label %35, label %_ZN4cvc58internal12NodeTemplateILb1EED2Ev.exit, !prof !10

35:                                               ; preds = %29
  invoke void @_ZN4cvc58internal4expr9NodeValue15markForDeletionEv(ptr noundef nonnull align 8 dereferenceable(24) %26)
          to label %_ZN4cvc58internal12NodeTemplateILb1EED2Ev.exit unwind label %36

36:                                               ; preds = %35
  %37 = landingpad { ptr, i32 }
          catch ptr null
  %38 = extractvalue { ptr, i32 } %37, 0
  call void @__clang_call_terminate(ptr %38) #18
  unreachable

_ZN4cvc58internal12NodeTemplateILb1EED2Ev.exit:   ; preds = %25, %29, %35
  ret void

39:                                               ; preds = %_ZN4cvc58internal12NodeTemplateILb1EEC2ERKS2_.exit
  %40 = landingpad { ptr, i32 }
          cleanup
  call void @_ZN4cvc58internal12NodeTemplateILb1EED2Ev(ptr noundef nonnull align 8 dereferenceable(8) %6) #17
  resume { ptr, i32 } %40
}